target datalayout = "e-m:e-p270:32:32-p271:32:32-p272:64:64-i64:64-i128:128-f80:128-n8:16:32:64-S128"
target triple = "x86_64-unknown-linux-gnu"

%struct.RISCVAclintMTimerState = type { %struct.SysBusDevice, i64, ptr, ptr, %struct.MemoryRegion, i32, i32, i32, i32, i32, i32, ptr }
%struct.SysBusDevice = type { %struct.DeviceState, i32, [32 x %struct.anon], i32, [32 x i32] }
%struct.DeviceState = type { %struct.Object, ptr, ptr, i8, i8, i64, ptr, i32, i8, ptr, %struct.NamedGPIOListHead, %struct.NamedClockListHead, %struct.BusStateHead, i32, i32, i32, %struct.ResettableState, ptr, %struct.MemReentrancyGuard }
%struct.Object = type { ptr, ptr, ptr, i32, ptr }
%struct.NamedGPIOListHead = type { ptr }
%struct.NamedClockListHead = type { ptr }
%struct.BusStateHead = type { ptr }
%struct.ResettableState = type { i32, i8, i8 }
%struct.MemReentrancyGuard = type { i8 }
%struct.anon = type { i64, ptr }
%struct.MemoryRegion = type { %struct.Object, i8, i8, i8, i8, i8, i8, i8, i8, i8, i8, ptr, ptr, ptr, ptr, ptr, ptr, i32, i128, i64, ptr, i64, i8, i8, i8, i8, i8, ptr, i64, i32, %union.anon, %union.anon.0, %union.anon.1, ptr, i32, ptr, ptr, i8 }
%union.anon = type { %struct.QTailQLink }
%struct.QTailQLink = type { ptr, ptr }
%union.anon.0 = type { %struct.QTailQLink }
%union.anon.1 = type { %struct.QTailQLink }

; Function Attrs: nounwind sspstrong uwtable
define internal i64 @muldiv64(i64 noundef %a, i32 noundef %b, i32 noundef %c) #0 {
entry:
  %a.addr = alloca i64, align 8
  %b.addr = alloca i32, align 4
  %c.addr = alloca i32, align 4
  store i64 %a, ptr %a.addr, align 8
  store i32 %b, ptr %b.addr, align 4
  store i32 %c, ptr %c.addr, align 4
  %0 = load i64, ptr %a.addr, align 8
  %conv = zext i64 %0 to i128
  %1 = load i32, ptr %b.addr, align 4
  %conv1 = zext i32 %1 to i128
  %mul = mul i128 %conv, %conv1
  %2 = load i32, ptr %c.addr, align 4
  %conv2 = zext i32 %2 to i128
  %div = sdiv i128 %mul, %conv2
  %conv3 = trunc i128 %div to i64
  ret i64 %conv3
}

; Function Attrs: nounwind sspstrong uwtable
define internal i64 @cpu_riscv_read_rtc_raw(i32 noundef %timebase_freq) #0 {
entry:
  %timebase_freq.addr = alloca i32, align 4
  store i32 %timebase_freq, ptr %timebase_freq.addr, align 4
  %call = call i64 @qemu_clock_get_ns(i32 noundef 1)
  %0 = load i32, ptr %timebase_freq.addr, align 4
  %call1 = call i64 @muldiv64(i64 noundef %call, i32 noundef %0, i32 noundef 1000000000)
  ret i64 %call1
}

; Function Attrs: nounwind sspstrong uwtable
define internal i64 @cpu_riscv_read_rtc(ptr noundef %opaque) #0 {
entry:
  %opaque.addr = alloca ptr, align 8
  %mtimer = alloca ptr, align 8
  store ptr %opaque, ptr %opaque.addr, align 8
  %0 = load ptr, ptr %opaque.addr, align 8
  store ptr %0, ptr %mtimer, align 8
  %1 = load ptr, ptr %mtimer, align 8
  %timebase_freq = getelementptr inbounds %struct.RISCVAclintMTimerState, ptr %1, i32 0, i32 10
  %2 = load i32, ptr %timebase_freq, align 4
  %call = call i64 @cpu_riscv_read_rtc_raw(i32 noundef %2)
  %3 = load ptr, ptr %mtimer, align 8
  %time_delta = getelementptr inbounds %struct.RISCVAclintMTimerState, ptr %3, i32 0, i32 1
  %4 = load i64, ptr %time_delta, align 16
  %add = add i64 %call, %4
  ret i64 %add
}