; Function Attrs: nounwind sspstrong uwtable
define internal i64 @cpu_riscv_read_rtc(ptr noundef readonly captures(none) %opaque) #0 {
entry:
  %timebase_freq = getelementptr inbounds nuw i8, ptr %opaque, i64 1140
  %0 = load i32, ptr %timebase_freq, align 4
  %call.i = tail call i64 @qemu_clock_get_ns(i32 noundef 1) #6
  %conv.i.i = zext i64 %call.i to i128
  %conv1.i.i = zext i32 %0 to i128
  %mul.i.i = mul nuw nsw i128 %conv.i.i, %conv1.i.i
  %div.i.i = udiv i128 %mul.i.i, 1000000000
  %conv3.i.i = trunc i128 %div.i.i to i64
  %time_delta = getelementptr inbounds nuw i8, ptr %opaque, i64 816
  %1 = load i64, ptr %time_delta, align 16
  %add = add i64 %1, %conv3.i.i
  ret i64 %add
}